target datalayout = "e-m:e-p270:32:32-p271:32:32-p272:64:64-i64:64-i128:128-f80:128-n8:16:32:64-S128"
target triple = "x86_64-pc-linux-gnu"

%struct.archive_cryptor = type { ptr, ptr, ptr, ptr, ptr, ptr, ptr }
%struct.archive_hmac = type { ptr, ptr, ptr, ptr }
%struct.archive_write = type { %struct.archive, i32, i64, i64, ptr, i64, ptr, ptr, ptr, ptr, ptr, i32, i32, ptr, ptr, ptr, ptr, ptr, ptr, ptr, ptr, ptr, ptr, ptr, ptr, ptr, ptr }
%struct.archive = type { i32, i32, ptr, i32, ptr, i32, i32, ptr, %struct.archive_string, ptr, i32, i32, ptr, ptr, i64, i64, i64, i8, i64 }
%struct.archive_string = type { ptr, i64, i64 }
%struct.zip = type { i64, i64, i64, i64, i64, i64, ptr, i32, i32, i32, i32, i32, %struct.trad_enc_ctx, i8, i8, i32, %struct.archive_crypto_ctx, i8, ptr, i8, ptr, i64, ptr, ptr, ptr, i64, i64, i64, ptr, ptr, i32, i32, i32, i32, i32, %struct.z_stream_s, i64, ptr }
%struct.trad_enc_ctx = type { [3 x i32] }
%struct.archive_crypto_ctx = type { ptr, ptr, [32 x i8], i32, [16 x i8], [16 x i8], i32 }
%struct.z_stream_s = type { ptr, i32, i64, ptr, i32, i64, ptr, ptr, ptr, ptr, ptr, i32, i64, i64 }
%struct.cd_segment = type { ptr, i64, ptr, ptr }

@__archive_cryptor = external constant %struct.archive_cryptor, align 8
@__archive_hmac = external constant %struct.archive_hmac, align 8

; Function Attrs: nounwind uwtable
define internal i32 @archive_write_zip_free(ptr noundef %0) #0 {
  %2 = alloca ptr, align 8
  %3 = alloca ptr, align 8
  %4 = alloca ptr, align 8
  store ptr %0, ptr %2, align 8, !tbaa !9
  call void @llvm.lifetime.start.p0(i64 8, ptr %3) #11
  call void @llvm.lifetime.start.p0(i64 8, ptr %4) #11
  %5 = load ptr, ptr %2, align 8, !tbaa !9
  %6 = getelementptr inbounds nuw %struct.archive_write, ptr %5, i32 0, i32 15
  %7 = load ptr, ptr %6, align 8, !tbaa !22
  store ptr %7, ptr %3, align 8, !tbaa !23
  br label %8

8:                                                ; preds = %13, %1
  %9 = load ptr, ptr %3, align 8, !tbaa !23
  %10 = getelementptr inbounds nuw %struct.zip, ptr %9, i32 0, i32 23
  %11 = load ptr, ptr %10, align 8, !tbaa !95
  %12 = icmp ne ptr %11, null
  br i1 %12, label %13, label %26

13:                                               ; preds = %8
  %14 = load ptr, ptr %3, align 8, !tbaa !23
  %15 = getelementptr inbounds nuw %struct.zip, ptr %14, i32 0, i32 23
  %16 = load ptr, ptr %15, align 8, !tbaa !95
  store ptr %16, ptr %4, align 8, !tbaa !96
  %17 = load ptr, ptr %4, align 8, !tbaa !96
  %18 = getelementptr inbounds nuw %struct.cd_segment, ptr %17, i32 0, i32 0
  %19 = load ptr, ptr %18, align 8, !tbaa !100
  %20 = load ptr, ptr %3, align 8, !tbaa !23
  %21 = getelementptr inbounds nuw %struct.zip, ptr %20, i32 0, i32 23
  store ptr %19, ptr %21, align 8, !tbaa !95
  %22 = load ptr, ptr %4, align 8, !tbaa !96
  %23 = getelementptr inbounds nuw %struct.cd_segment, ptr %22, i32 0, i32 2
  %24 = load ptr, ptr %23, align 8, !tbaa !97
  call void @free(ptr noundef %24) #11
  %25 = load ptr, ptr %4, align 8, !tbaa !96
  call void @free(ptr noundef %25) #11
  br label %8, !llvm.loop !102

26:                                               ; preds = %8
  %27 = load ptr, ptr %3, align 8, !tbaa !23
  %28 = getelementptr inbounds nuw %struct.zip, ptr %27, i32 0, i32 37
  %29 = load ptr, ptr %28, align 8, !tbaa !40
  call void @free(ptr noundef %29) #11
  %30 = load ptr, ptr %3, align 8, !tbaa !23
  %31 = getelementptr inbounds nuw %struct.zip, ptr %30, i32 0, i32 6
  %32 = load ptr, ptr %31, align 8, !tbaa !67
  call void @archive_entry_free(ptr noundef %32)
  %33 = load ptr, ptr %3, align 8, !tbaa !23
  %34 = getelementptr inbounds nuw %struct.zip, ptr %33, i32 0, i32 17
  %35 = load i8, ptr %34, align 8, !tbaa !68
  %36 = icmp ne i8 %35, 0
  br i1 %36, label %37, label %42

37:                                               ; preds = %26
  %38 = load ptr, ptr getelementptr inbounds nuw (%struct.archive_cryptor, ptr @__archive_cryptor, i32 0, i32 6), align 8, !tbaa !69
  %39 = load ptr, ptr %3, align 8, !tbaa !23
  %40 = getelementptr inbounds nuw %struct.zip, ptr %39, i32 0, i32 16
  %41 = call i32 %38(ptr noundef %40)
  br label %42

42:                                               ; preds = %37, %26
  %43 = load ptr, ptr %3, align 8, !tbaa !23
  %44 = getelementptr inbounds nuw %struct.zip, ptr %43, i32 0, i32 19
  %45 = load i8, ptr %44, align 8, !tbaa !71
  %46 = icmp ne i8 %45, 0
  br i1 %46, label %47, label %51

47:                                               ; preds = %42
  %48 = load ptr, ptr getelementptr inbounds nuw (%struct.archive_hmac, ptr @__archive_hmac, i32 0, i32 3), align 8, !tbaa !72
  %49 = load ptr, ptr %3, align 8, !tbaa !23
  %50 = getelementptr inbounds nuw %struct.zip, ptr %49, i32 0, i32 18
  call void %48(ptr noundef %50)
  br label %51

51:                                               ; preds = %47, %42
  %52 = load ptr, ptr %3, align 8, !tbaa !23
  call void @free(ptr noundef %52) #11
  %53 = load ptr, ptr %2, align 8, !tbaa !9
  %54 = getelementptr inbounds nuw %struct.archive_write, ptr %53, i32 0, i32 15
  store ptr null, ptr %54, align 8, !tbaa !22
  call void @llvm.lifetime.end.p0(i64 8, ptr %4) #11
  call void @llvm.lifetime.end.p0(i64 8, ptr %3) #11
  ret i32 0
}