; Function Attrs: nounwind uwtable
define internal noundef i32 @archive_write_zip_free(ptr noundef captures(none) %0) #0 {
  %2 = getelementptr inbounds nuw i8, ptr %0, i64 248
  %3 = load ptr, ptr %2, align 8, !tbaa !17
  %4 = getelementptr inbounds nuw i8, ptr %3, i64 232
  %5 = load ptr, ptr %4, align 8, !tbaa !77
  %.not17 = icmp eq ptr %5, null
  br i1 %.not17, label %._crit_edge, label %.lr.ph

.lr.ph:                                           ; preds = %1, %.lr.ph
  %6 = phi ptr [ %10, %.lr.ph ], [ %5, %1 ]
  %7 = load ptr, ptr %6, align 8, !tbaa !83
  store ptr %7, ptr %4, align 8, !tbaa !77
  %8 = getelementptr inbounds nuw i8, ptr %6, i64 16
  %9 = load ptr, ptr %8, align 8, !tbaa !81
  tail call void @free(ptr noundef %9) #13
  tail call void @free(ptr noundef nonnull %6) #13
  %10 = load ptr, ptr %4, align 8, !tbaa !77
  %.not = icmp eq ptr %10, null
  br i1 %.not, label %._crit_edge, label %.lr.ph, !llvm.loop !105

._crit_edge:                                      ; preds = %.lr.ph, %1
  %11 = getelementptr inbounds nuw i8, ptr %3, i64 432
  %12 = load ptr, ptr %11, align 8, !tbaa !33
  tail call void @free(ptr noundef %12) #13
  %13 = getelementptr inbounds nuw i8, ptr %3, i64 48
  %14 = load ptr, ptr %13, align 8, !tbaa !53
  tail call void @archive_entry_free(ptr noundef %14) #13
  %15 = getelementptr inbounds nuw i8, ptr %3, i64 184
  %16 = load i8, ptr %15, align 8, !tbaa !54
  %.not15 = icmp eq i8 %16, 0
  br i1 %.not15, label %21, label %17

17:                                               ; preds = %._crit_edge
  %18 = load ptr, ptr getelementptr inbounds nuw (i8, ptr @__archive_cryptor, i64 48), align 8, !tbaa !55
  %19 = getelementptr inbounds nuw i8, ptr %3, i64 96
  %20 = tail call i32 %18(ptr noundef nonnull %19) #13
  br label %21

21:                                               ; preds = %17, %._crit_edge
  %22 = getelementptr inbounds nuw i8, ptr %3, i64 200
  %23 = load i8, ptr %22, align 8, !tbaa !57
  %.not16 = icmp eq i8 %23, 0
  br i1 %.not16, label %27, label %24

24:                                               ; preds = %21
  %25 = load ptr, ptr getelementptr inbounds nuw (i8, ptr @__archive_hmac, i64 24), align 8, !tbaa !58
  %26 = getelementptr inbounds nuw i8, ptr %3, i64 192
  tail call void %25(ptr noundef nonnull %26) #13
  br label %27

27:                                               ; preds = %24, %21
  tail call void @free(ptr noundef nonnull %3) #13
  store ptr null, ptr %2, align 8, !tbaa !17
  ret i32 0
}